target datalayout = "e-m:e-p270:32:32-p271:32:32-p272:64:64-i64:64-i128:128-f80:128-n8:16:32:64-S128"
target triple = "x86_64-pc-linux-gnu"

%struct.AVBSFContext = type { ptr, ptr, ptr, ptr, ptr, %struct.AVRational, %struct.AVRational }
%struct.AVRational = type { i32, i32 }
%struct.EVCFMergeContext = type { ptr, ptr, %struct.EVCParamSets, %struct.EVCParserPoc, %struct.AccessUnitBuffer }
%struct.EVCParamSets = type { [16 x ptr], [64 x ptr] }
%struct.EVCParserPoc = type { i32, i32, i32 }
%struct.AccessUnitBuffer = type { ptr, i64, i32 }

; Function Attrs: nounwind uwtable
define internal i32 @evc_frame_merge_init(ptr noundef %0) #0 {
  %2 = alloca i32, align 4
  %3 = alloca ptr, align 8
  %4 = alloca ptr, align 8
  %5 = alloca i32, align 4
  store ptr %0, ptr %3, align 8, !tbaa !4
  call void @llvm.lifetime.start.p0(i64 8, ptr %4) #8
  %6 = load ptr, ptr %3, align 8, !tbaa !4
  %7 = getelementptr inbounds nuw %struct.AVBSFContext, ptr %6, i32 0, i32 2
  %8 = load ptr, ptr %7, align 8, !tbaa !9
  store ptr %8, ptr %4, align 8, !tbaa !16
  %9 = call ptr @av_packet_alloc()
  %10 = load ptr, ptr %4, align 8, !tbaa !16
  %11 = getelementptr inbounds nuw %struct.EVCFMergeContext, ptr %10, i32 0, i32 0
  store ptr %9, ptr %11, align 8, !tbaa !18
  %12 = call ptr @av_packet_alloc()
  %13 = load ptr, ptr %4, align 8, !tbaa !16
  %14 = getelementptr inbounds nuw %struct.EVCFMergeContext, ptr %13, i32 0, i32 1
  store ptr %12, ptr %14, align 8, !tbaa !26
  %15 = load ptr, ptr %4, align 8, !tbaa !16
  %16 = getelementptr inbounds nuw %struct.EVCFMergeContext, ptr %15, i32 0, i32 0
  %17 = load ptr, ptr %16, align 8, !tbaa !18
  %18 = icmp ne ptr %17, null
  br i1 %18, label %19, label %24

19:                                               ; preds = %1
  %20 = load ptr, ptr %4, align 8, !tbaa !16
  %21 = getelementptr inbounds nuw %struct.EVCFMergeContext, ptr %20, i32 0, i32 1
  %22 = load ptr, ptr %21, align 8, !tbaa !26
  %23 = icmp ne ptr %22, null
  br i1 %23, label %25, label %24

24:                                               ; preds = %19, %1
  store i32 -12, ptr %2, align 4
  store i32 1, ptr %5, align 4
  br label %26

25:                                               ; preds = %19
  store i32 0, ptr %2, align 4
  store i32 1, ptr %5, align 4
  br label %26

26:                                               ; preds = %25, %24
  call void @llvm.lifetime.end.p0(i64 8, ptr %4) #8
  %27 = load i32, ptr %2, align 4
  ret i32 %27
}