; Function Attrs: nounwind uwtable
define internal range(i32 -12, 1) i32 @evc_frame_merge_init(ptr noundef readonly captures(none) %0) #0 {
  %2 = getelementptr inbounds nuw i8, ptr %0, i64 16
  %3 = load ptr, ptr %2, align 8, !tbaa !4
  %4 = tail call ptr @av_packet_alloc() #7
  store ptr %4, ptr %3, align 8, !tbaa !14
  %5 = tail call ptr @av_packet_alloc() #7
  %6 = getelementptr inbounds nuw i8, ptr %3, i64 8
  store ptr %5, ptr %6, align 8, !tbaa !22
  %7 = load ptr, ptr %3, align 8, !tbaa !14
  %.not = icmp eq ptr %7, null
  %.not5 = icmp eq ptr %5, null
  %or.cond = select i1 %.not, i1 true, i1 %.not5
  %.0 = select i1 %or.cond, i32 -12, i32 0
  ret i32 %.0
}